; Function Attrs: mustprogress nounwind uwtable
define hidden void @_ZN10ODDLParser12IOStreamBaseD0Ev(ptr noundef nonnull align 8 dereferenceable(24) initializes((0, 8)) %0) unnamed_addr #2 align 2 {
  store ptr getelementptr inbounds nuw inrange(-16, 56) (i8, ptr @_ZTVN10ODDLParser12IOStreamBaseE, i64 16), ptr %0, align 8
  %2 = getelementptr inbounds nuw i8, ptr %0, i64 8
  %3 = load ptr, ptr %2, align 8
  %4 = icmp eq ptr %3, null
  br i1 %4, label %_ZN10ODDLParser12IOStreamBaseD2Ev.exit, label %5

5:                                                ; preds = %1
  %6 = load ptr, ptr %3, align 8
  %7 = getelementptr inbounds nuw i8, ptr %6, i64 8
  %8 = load ptr, ptr %7, align 8
  tail call void %8(ptr noundef nonnull align 8 dereferenceable(8) %3) #14
  br label %_ZN10ODDLParser12IOStreamBaseD2Ev.exit

_ZN10ODDLParser12IOStreamBaseD2Ev.exit:           ; preds = %1, %5
  tail call void @_ZdlPvm(ptr noundef nonnull %0, i64 noundef 24) #13
  ret void
}